; Function Attrs: mustprogress nounwind uwtable
define dso_local void @_ZN5clang4ento12AllocaRegion13ProfileRegionERN4llvm16FoldingSetNodeIDEPKNS_4ExprEjPKNS0_9MemRegionE(ptr noundef nonnull align 8 dereferenceable(144) %0, ptr noundef %1, i32 noundef %2, ptr noundef %3) local_unnamed_addr #3 align 2 {
  %5 = tail call noundef i64 @_ZNK4llvm15SmallVectorBaseIjE4sizeEv(ptr noundef nonnull align 8 dereferenceable(16) %0) #20
  %6 = add i64 %5, 1
  %7 = tail call noundef i64 @_ZNK4llvm15SmallVectorBaseIjE8capacityEv(ptr noundef nonnull align 8 dereferenceable(16) %0) #20
  %.not.i.i.i.i = icmp ugt i64 %6, %7
  br i1 %.not.i.i.i.i, label %8, label %_ZN4llvm16FoldingSetNodeID10AddIntegerEj.exit

8:                                                ; preds = %4
  %9 = getelementptr inbounds i8, ptr %0, i64 16
  tail call void @_ZN4llvm15SmallVectorBaseIjE8grow_podEPvmm(ptr noundef nonnull align 8 dereferenceable(16) %0, ptr noundef nonnull %9, i64 noundef %6, i64 noundef 4) #20
  br label %_ZN4llvm16FoldingSetNodeID10AddIntegerEj.exit

_ZN4llvm16FoldingSetNodeID10AddIntegerEj.exit:    ; preds = %4, %8
  %10 = load ptr, ptr %0, align 8
  %11 = tail call noundef i64 @_ZNK4llvm15SmallVectorBaseIjE4sizeEv(ptr noundef nonnull align 8 dereferenceable(16) %0) #20
  %12 = getelementptr inbounds i32, ptr %10, i64 %11
  store i32 9, ptr %12, align 1
  %13 = tail call noundef i64 @_ZNK4llvm15SmallVectorBaseIjE4sizeEv(ptr noundef nonnull align 8 dereferenceable(16) %0) #20
  %14 = add i64 %13, 1
  tail call void @_ZN4llvm15SmallVectorBaseIjE8set_sizeEm(ptr noundef nonnull align 8 dereferenceable(16) %0, i64 noundef %14) #20
  %15 = ptrtoint ptr %1 to i64
  tail call void @_ZN4llvm16FoldingSetNodeID10AddIntegerEy(ptr noundef nonnull align 8 dereferenceable(144) %0, i64 noundef %15)
  %16 = tail call noundef i64 @_ZNK4llvm15SmallVectorBaseIjE4sizeEv(ptr noundef nonnull align 8 dereferenceable(16) %0) #20
  %17 = add i64 %16, 1
  %18 = tail call noundef i64 @_ZNK4llvm15SmallVectorBaseIjE8capacityEv(ptr noundef nonnull align 8 dereferenceable(16) %0) #20
  %.not.i.i.i.i6 = icmp ugt i64 %17, %18
  br i1 %.not.i.i.i.i6, label %19, label %_ZN4llvm16FoldingSetNodeID10AddIntegerEj.exit7

19:                                               ; preds = %_ZN4llvm16FoldingSetNodeID10AddIntegerEj.exit
  %20 = getelementptr inbounds i8, ptr %0, i64 16
  tail call void @_ZN4llvm15SmallVectorBaseIjE8grow_podEPvmm(ptr noundef nonnull align 8 dereferenceable(16) %0, ptr noundef nonnull %20, i64 noundef %17, i64 noundef 4) #20
  br label %_ZN4llvm16FoldingSetNodeID10AddIntegerEj.exit7

_ZN4llvm16FoldingSetNodeID10AddIntegerEj.exit7:   ; preds = %_ZN4llvm16FoldingSetNodeID10AddIntegerEj.exit, %19
  %21 = load ptr, ptr %0, align 8
  %22 = tail call noundef i64 @_ZNK4llvm15SmallVectorBaseIjE4sizeEv(ptr noundef nonnull align 8 dereferenceable(16) %0) #20
  %23 = getelementptr inbounds i32, ptr %21, i64 %22
  store i32 %2, ptr %23, align 1
  %24 = tail call noundef i64 @_ZNK4llvm15SmallVectorBaseIjE4sizeEv(ptr noundef nonnull align 8 dereferenceable(16) %0) #20
  %25 = add i64 %24, 1
  tail call void @_ZN4llvm15SmallVectorBaseIjE8set_sizeEm(ptr noundef nonnull align 8 dereferenceable(16) %0, i64 noundef %25) #20
  %26 = ptrtoint ptr %3 to i64
  tail call void @_ZN4llvm16FoldingSetNodeID10AddIntegerEy(ptr noundef nonnull align 8 dereferenceable(144) %0, i64 noundef %26)
  ret void
}